; Function Attrs: nounwind uwtable
define dso_local range(i32 0, 2) i32 @gendsa_main(i32 noundef %0, ptr noundef %1) local_unnamed_addr #0 {
  %3 = alloca ptr, align 8
  %4 = alloca ptr, align 8
  call void @llvm.lifetime.start.p0(i64 8, ptr nonnull %3) #3
  store ptr null, ptr %3, align 8, !tbaa !4
  call void @llvm.lifetime.start.p0(i64 8, ptr nonnull %4) #3
  store ptr null, ptr %4, align 8, !tbaa !9
  tail call void @opt_set_unknown_name(ptr noundef nonnull @.str.34) #3
  %5 = tail call ptr @opt_init(i32 noundef %0, ptr noundef %1, ptr noundef nonnull @gendsa_options) #3
  br label %6

6:                                                ; preds = %.backedge, %2
  %.042 = phi ptr [ null, %2 ], [ %.042.be, %.backedge ]
  %.040 = phi ptr [ null, %2 ], [ %.040.be, %.backedge ]
  %.038 = phi ptr [ null, %2 ], [ %.038.be, %.backedge ]
  %.034 = phi ptr [ null, %2 ], [ %.034.be, %.backedge ]
  %.0 = phi i32 [ 0, %2 ], [ %.0.be, %.backedge ]
  %7 = tail call i32 @opt_next() #3
  switch i32 %7, label %.backedge [
    i32 0, label %26
    i32 1604, label %20
    i32 -1, label %.loopexit
    i32 1, label %10
    i32 2, label %11
    i32 3, label %13
    i32 4, label %15
    i32 7, label %25
    i32 6, label %24
    i32 1501, label %18
    i32 1502, label %18
    i32 5, label %22
    i32 1603, label %20
    i32 1601, label %20
    i32 1602, label %20
  ]

.backedge:                                        ; preds = %6, %20, %18, %25, %24, %22, %15, %13, %11
  %.042.be = phi ptr [ %.042, %20 ], [ %23, %22 ], [ %.042, %18 ], [ %.042, %24 ], [ %.042, %25 ], [ %.042, %15 ], [ %.042, %13 ], [ %.042, %11 ], [ %.042, %6 ]
  %.040.be = phi ptr [ %.040, %20 ], [ %.040, %22 ], [ %.040, %18 ], [ %.040, %24 ], [ %.040, %25 ], [ %.040, %15 ], [ %.040, %13 ], [ %12, %11 ], [ %.040, %6 ]
  %.038.be = phi ptr [ %.038, %20 ], [ %.038, %22 ], [ %.038, %18 ], [ %.038, %24 ], [ %.038, %25 ], [ %.038, %15 ], [ %14, %13 ], [ %.038, %11 ], [ %.038, %6 ]
  %.034.be = phi ptr [ %.034, %20 ], [ %.034, %22 ], [ %.034, %18 ], [ %.034, %24 ], [ %.034, %25 ], [ %17, %15 ], [ %.034, %13 ], [ %.034, %11 ], [ %.034, %6 ]
  %.0.be = phi i32 [ %.0, %20 ], [ %.0, %22 ], [ %.0, %18 ], [ 1, %24 ], [ 0, %25 ], [ %.0, %15 ], [ %.0, %13 ], [ %.0, %11 ], [ %.0, %6 ]
  br label %6, !llvm.loop !11

.loopexit:                                        ; preds = %6, %26
  %8 = load ptr, ptr @bio_err, align 8, !tbaa !13
  %9 = tail call i32 (ptr, ptr, ...) @BIO_printf(ptr noundef %8, ptr noundef nonnull @.str.35, ptr noundef %5) #3
  br label %.loopexit70

10:                                               ; preds = %6
  tail call void @opt_help(ptr noundef nonnull @gendsa_options) #3
  br label %75

11:                                               ; preds = %6
  %12 = tail call ptr @opt_arg() #3
  br label %.backedge

13:                                               ; preds = %6
  %14 = tail call ptr @opt_arg() #3
  br label %.backedge

15:                                               ; preds = %6
  %16 = tail call ptr @opt_arg() #3
  %17 = tail call ptr @setup_engine_methods(ptr noundef %16, i32 noundef -1, i32 noundef 0) #3
  br label %.backedge

18:                                               ; preds = %6, %6
  %19 = tail call i32 @opt_rand(i32 noundef %7) #3
  %.not61 = icmp eq i32 %19, 0
  br i1 %.not61, label %.loopexit70, label %.backedge

20:                                               ; preds = %6, %6, %6, %6
  %21 = tail call i32 @opt_provider(i32 noundef %7) #3
  %.not60 = icmp eq i32 %21, 0
  br i1 %.not60, label %.loopexit70, label %.backedge

22:                                               ; preds = %6
  %23 = tail call ptr @opt_unknown() #3
  br label %.backedge

24:                                               ; preds = %6
  br label %.backedge

25:                                               ; preds = %6
  br label %.backedge

26:                                               ; preds = %6
  %27 = tail call i32 @opt_check_rest_arg(ptr noundef nonnull @.str.36) #3
  %.not55 = icmp eq i32 %27, 0
  br i1 %.not55, label %.loopexit, label %28

28:                                               ; preds = %26
  %29 = tail call ptr @opt_rest() #3
  %30 = load ptr, ptr %29, align 8, !tbaa !9
  %31 = tail call i32 @app_RAND_load() #3
  %.not56 = icmp eq i32 %31, 0
  br i1 %.not56, label %.loopexit70, label %32

32:                                               ; preds = %28
  %33 = call i32 @opt_cipher(ptr noundef %.042, ptr noundef nonnull %3) #3
  %.not57 = icmp eq i32 %33, 0
  br i1 %.not57, label %.loopexit70, label %34

34:                                               ; preds = %32
  %35 = call i32 @app_passwd(ptr noundef null, ptr noundef %.038, ptr noundef null, ptr noundef nonnull %4) #3
  %.not58 = icmp eq i32 %35, 0
  br i1 %.not58, label %36, label %39

36:                                               ; preds = %34
  %37 = load ptr, ptr @bio_err, align 8, !tbaa !13
  %38 = call i32 (ptr, ptr, ...) @BIO_printf(ptr noundef %37, ptr noundef nonnull @.str.37) #3
  br label %.loopexit70

39:                                               ; preds = %34
  %40 = call ptr @load_keyparams(ptr noundef %30, i32 noundef 0, i32 noundef 1, ptr noundef nonnull @.str.38, ptr noundef nonnull @.str.39) #3
  %41 = call ptr @bio_open_owner(ptr noundef %.040, i32 noundef 32773, i32 noundef 1) #3
  %42 = icmp eq ptr %41, null
  br i1 %42, label %75, label %43

43:                                               ; preds = %39
  %44 = call i32 @EVP_PKEY_get_bits(ptr noundef %40) #3
  %45 = icmp sgt i32 %44, 10000
  br i1 %45, label %46, label %50

46:                                               ; preds = %43
  %47 = load ptr, ptr @bio_err, align 8, !tbaa !13
  %48 = call i32 @EVP_PKEY_get_bits(ptr noundef %40) #3
  %49 = call i32 (ptr, ptr, ...) @BIO_printf(ptr noundef %47, ptr noundef nonnull @.str.40, i32 noundef 10000, i32 noundef %48) #3
  br label %50

50:                                               ; preds = %46, %43
  %51 = call ptr @app_get0_libctx() #3
  %52 = call ptr @app_get0_propq() #3
  %53 = call ptr @EVP_PKEY_CTX_new_from_pkey(ptr noundef %51, ptr noundef %40, ptr noundef %52) #3
  %54 = icmp eq ptr %53, null
  br i1 %54, label %55, label %58

55:                                               ; preds = %50
  %56 = load ptr, ptr @bio_err, align 8, !tbaa !13
  %57 = call i32 (ptr, ptr, ...) @BIO_printf(ptr noundef %56, ptr noundef nonnull @.str.41) #3
  br label %.loopexit70

58:                                               ; preds = %50
  call void @EVP_PKEY_free(ptr noundef %40) #3
  %59 = call i32 @EVP_PKEY_keygen_init(ptr noundef nonnull %53) #3
  %60 = icmp slt i32 %59, 1
  br i1 %60, label %61, label %64

61:                                               ; preds = %58
  %62 = load ptr, ptr @bio_err, align 8, !tbaa !13
  %63 = call i32 (ptr, ptr, ...) @BIO_printf(ptr noundef %62, ptr noundef nonnull @.str.42) #3
  br label %.loopexit70

64:                                               ; preds = %58
  %65 = call ptr @app_keygen(ptr noundef nonnull %53, ptr noundef nonnull @.str.38, i32 noundef %44, i32 noundef %.0) #3
  %66 = icmp eq ptr %65, null
  br i1 %66, label %.loopexit70, label %67

67:                                               ; preds = %64
  %68 = load ptr, ptr %3, align 8, !tbaa !4
  %69 = load ptr, ptr %4, align 8, !tbaa !9
  %70 = call i32 @PEM_write_bio_PrivateKey(ptr noundef nonnull %41, ptr noundef nonnull %65, ptr noundef %68, ptr noundef null, i32 noundef 0, ptr noundef null, ptr noundef %69) #3
  %.not59 = icmp eq i32 %70, 0
  br i1 %.not59, label %71, label %75

71:                                               ; preds = %67
  %72 = load ptr, ptr @bio_err, align 8, !tbaa !13
  %73 = call i32 (ptr, ptr, ...) @BIO_printf(ptr noundef %72, ptr noundef nonnull @.str.43) #3
  br label %.loopexit70

.loopexit70:                                      ; preds = %20, %18, %.loopexit, %55, %61, %64, %71, %36, %32, %28
  %.046.ph = phi ptr [ null, %28 ], [ null, %32 ], [ null, %36 ], [ %65, %71 ], [ null, %64 ], [ null, %61 ], [ %40, %55 ], [ null, %.loopexit ], [ null, %18 ], [ null, %20 ]
  %.044.ph = phi ptr [ null, %28 ], [ null, %32 ], [ null, %36 ], [ %53, %71 ], [ %53, %64 ], [ %53, %61 ], [ null, %55 ], [ null, %.loopexit ], [ null, %18 ], [ null, %20 ]
  %.036.ph = phi ptr [ null, %28 ], [ null, %32 ], [ null, %36 ], [ %41, %71 ], [ %41, %64 ], [ %41, %61 ], [ %41, %55 ], [ null, %.loopexit ], [ null, %18 ], [ null, %20 ]
  %74 = load ptr, ptr @bio_err, align 8, !tbaa !13
  call void @ERR_print_errors(ptr noundef %74) #3
  br label %75

75:                                               ; preds = %10, %67, %.loopexit70, %39
  %.147 = phi ptr [ %.046.ph, %.loopexit70 ], [ %40, %39 ], [ null, %10 ], [ %65, %67 ]
  %.145 = phi ptr [ %.044.ph, %.loopexit70 ], [ null, %39 ], [ null, %10 ], [ %53, %67 ]
  %.137 = phi ptr [ %.036.ph, %.loopexit70 ], [ null, %39 ], [ null, %10 ], [ %41, %67 ]
  %.133 = phi i32 [ 1, %.loopexit70 ], [ 1, %39 ], [ 0, %10 ], [ 0, %67 ]
  %76 = call i32 @BIO_free(ptr noundef null) #3
  call void @BIO_free_all(ptr noundef %.137) #3
  call void @EVP_PKEY_free(ptr noundef %.147) #3
  call void @EVP_PKEY_CTX_free(ptr noundef %.145) #3
  %77 = load ptr, ptr %3, align 8, !tbaa !4
  call void @EVP_CIPHER_free(ptr noundef %77) #3
  call void @release_engine(ptr noundef %.034) #3
  %78 = load ptr, ptr %4, align 8, !tbaa !9
  call void @CRYPTO_free(ptr noundef %78, ptr noundef nonnull @.str.44, i32 noundef 170) #3
  call void @llvm.lifetime.end.p0(i64 8, ptr nonnull %4) #3
  call void @llvm.lifetime.end.p0(i64 8, ptr nonnull %3) #3
  ret i32 %.133
}